; Function Attrs: mustprogress uwtable
define internal noundef i32 @_ZL18buffer_readintegerIjEiP9lua_State(ptr noundef %0) #0 {
  %2 = alloca i64, align 8
  store i64 0, ptr %2, align 8
  %3 = call noundef ptr @_Z16luaL_checkbufferP9lua_StateiPm(ptr noundef %0, i32 noundef 1, ptr noundef nonnull %2)
  %4 = call noundef i32 @_Z17luaL_checkintegerP9lua_Statei(ptr noundef %0, i32 noundef 2)
  %5 = zext i32 %4 to i64
  %6 = add nuw nsw i64 %5, 4
  %7 = load i64, ptr %2, align 8
  %8 = icmp ugt i64 %6, %7
  br i1 %8, label %9, label %10

9:                                                ; preds = %1
  call void (ptr, ptr, ...) @_Z11luaL_errorLP9lua_StatePKcz(ptr noundef %0, ptr noundef nonnull @.str.26) #5
  unreachable

10:                                               ; preds = %1
  %11 = sext i32 %4 to i64
  %12 = getelementptr inbounds i8, ptr %3, i64 %11
  %.0.copyload = load i32, ptr %12, align 1
  %13 = uitofp i32 %.0.copyload to double
  call void @_Z14lua_pushnumberP9lua_Stated(ptr noundef %0, double noundef %13)
  ret i32 1
}